target datalayout = "e-m:e-p270:32:32-p271:32:32-p272:64:64-i64:64-i128:128-f80:128-n8:16:32:64-S128"
target triple = "x86_64-pc-linux-gnu"

%struct.hb_font_funcs_t = type { %struct.hb_object_header_t, ptr, ptr, %"union.hb_font_funcs_t::get_t" }
%struct.hb_object_header_t = type { %struct.hb_reference_count_t, %struct.hb_atomic_int_t, %struct.hb_atomic_ptr_t }
%struct.hb_reference_count_t = type { %struct.hb_atomic_int_t }
%struct.hb_atomic_int_t = type { i32 }
%struct.hb_atomic_ptr_t = type { ptr }
%"union.hb_font_funcs_t::get_t" = type { %"struct.hb_font_funcs_t::get_t::get_funcs_t" }
%"struct.hb_font_funcs_t::get_t::get_funcs_t" = type { ptr, ptr, ptr, ptr, ptr, ptr, ptr, ptr, ptr, ptr, ptr, ptr, ptr, ptr, ptr, ptr, ptr, ptr, ptr }
%struct.hb_atomic_ptr_t.1 = type { ptr }
%struct.hb_atomic_ptr_t.5 = type { ptr }
%struct.hb_font_t = type { %struct.hb_object_header_t, i32, i32, ptr, ptr, i32, i32, float, float, i8, i32, i32, float, float, float, float, i64, i64, i32, i32, float, i32, i32, ptr, ptr, ptr, ptr, ptr, %struct.hb_shaper_object_dataset_t }
%struct.hb_shaper_object_dataset_t = type { ptr, %struct.hb_shaper_lazy_loader_t, %struct.hb_shaper_lazy_loader_t.2 }
%struct.hb_shaper_lazy_loader_t = type { %struct.hb_lazy_loader_t }
%struct.hb_lazy_loader_t = type { %struct.hb_atomic_ptr_t.1 }
%struct.hb_shaper_lazy_loader_t.2 = type { %struct.hb_lazy_loader_t.3 }
%struct.hb_lazy_loader_t.3 = type { %struct.hb_atomic_ptr_t.5 }
%struct.anon.0 = type { ptr, ptr, ptr, ptr, ptr, ptr, ptr, ptr, ptr, ptr, ptr, ptr, ptr, ptr, ptr, ptr, ptr, ptr, ptr }

; Function Attrs: mustprogress uwtable
define linkonce_odr hidden noundef i32 @_ZN9hb_font_t19get_glyph_from_nameEPKciPj(ptr noundef nonnull align 8 dereferenceable(192) %0, ptr noundef %1, i32 noundef %2, ptr noundef %3) #0 comdat align 2 {
  %5 = alloca ptr, align 8
  %6 = alloca ptr, align 8
  %7 = alloca i32, align 4
  %8 = alloca ptr, align 8
  store ptr %0, ptr %5, align 8
  store ptr %1, ptr %6, align 8
  store i32 %2, ptr %7, align 4
  store ptr %3, ptr %8, align 8
  %9 = load ptr, ptr %5, align 8
  %10 = load ptr, ptr %8, align 8
  store i32 0, ptr %10, align 4
  %11 = load i32, ptr %7, align 4
  %12 = icmp eq i32 %11, -1
  br i1 %12, label %13, label %17

13:                                               ; preds = %4
  %14 = load ptr, ptr %6, align 8
  %15 = call i64 @strlen(ptr noundef %14) #13
  %16 = trunc i64 %15 to i32
  store i32 %16, ptr %7, align 4
  br label %17

17:                                               ; preds = %13, %4
  %18 = getelementptr inbounds %struct.hb_font_t, ptr %9, i32 0, i32 25
  %19 = load ptr, ptr %18, align 8
  %20 = getelementptr inbounds %struct.hb_font_funcs_t, ptr %19, i32 0, i32 3
  %21 = getelementptr inbounds %"struct.hb_font_funcs_t::get_t::get_funcs_t", ptr %20, i32 0, i32 16
  %22 = load ptr, ptr %21, align 8
  %23 = getelementptr inbounds %struct.hb_font_t, ptr %9, i32 0, i32 26
  %24 = load ptr, ptr %23, align 8
  %25 = load ptr, ptr %6, align 8
  %26 = load i32, ptr %7, align 4
  %27 = load ptr, ptr %8, align 8
  %28 = getelementptr inbounds %struct.hb_font_t, ptr %9, i32 0, i32 25
  %29 = load ptr, ptr %28, align 8
  %30 = getelementptr inbounds %struct.hb_font_funcs_t, ptr %29, i32 0, i32 1
  %31 = load ptr, ptr %30, align 8
  %32 = icmp ne ptr %31, null
  br i1 %32, label %34, label %33

33:                                               ; preds = %17
  br label %41

34:                                               ; preds = %17
  %35 = getelementptr inbounds %struct.hb_font_t, ptr %9, i32 0, i32 25
  %36 = load ptr, ptr %35, align 8
  %37 = getelementptr inbounds %struct.hb_font_funcs_t, ptr %36, i32 0, i32 1
  %38 = load ptr, ptr %37, align 8
  %39 = getelementptr inbounds %struct.anon.0, ptr %38, i32 0, i32 16
  %40 = load ptr, ptr %39, align 8
  br label %41

41:                                               ; preds = %34, %33
  %42 = phi ptr [ null, %33 ], [ %40, %34 ]
  %43 = call noundef i32 %22(ptr noundef %9, ptr noundef %24, ptr noundef %25, i32 noundef %26, ptr noundef %27, ptr noundef %42)
  ret i32 %43
}

; Function Attrs: mustprogress uwtable
define internal noundef i32 @_ZL35hb_font_get_glyph_from_name_defaultP9hb_font_tPvPKciPjS1_(ptr noundef %0, ptr noundef %1, ptr noundef %2, i32 noundef %3, ptr noundef %4, ptr noundef %5) #0 {
  %7 = alloca ptr, align 8
  %8 = alloca ptr, align 8
  %9 = alloca ptr, align 8
  %10 = alloca i32, align 4
  %11 = alloca ptr, align 8
  %12 = alloca ptr, align 8
  store ptr %0, ptr %7, align 8
  store ptr %1, ptr %8, align 8
  store ptr %2, ptr %9, align 8
  store i32 %3, ptr %10, align 4
  store ptr %4, ptr %11, align 8
  store ptr %5, ptr %12, align 8
  %13 = load ptr, ptr %7, align 8
  %14 = getelementptr inbounds %struct.hb_font_t, ptr %13, i32 0, i32 3
  %15 = load ptr, ptr %14, align 8
  %16 = load ptr, ptr %9, align 8
  %17 = load i32, ptr %10, align 4
  %18 = load ptr, ptr %11, align 8
  %19 = call noundef i32 @_ZN9hb_font_t19get_glyph_from_nameEPKciPj(ptr noundef nonnull align 8 dereferenceable(192) %15, ptr noundef %16, i32 noundef %17, ptr noundef %18)
  ret i32 %19
}