; Function Attrs: mustprogress uwtable
define internal noundef i32 @_ZL35hb_font_get_glyph_from_name_defaultP9hb_font_tPvPKciPjS1_(ptr nocapture noundef readonly %0, ptr nocapture readnone %1, ptr noundef %2, i32 noundef %3, ptr noundef %4, ptr nocapture readnone %5) #1 {
  %7 = getelementptr inbounds i8, ptr %0, i64 24
  %8 = load ptr, ptr %7, align 8
  store i32 0, ptr %4, align 4
  %9 = icmp eq i32 %3, -1
  br i1 %9, label %10, label %13

10:                                               ; preds = %6
  %11 = tail call i64 @strlen(ptr noundef nonnull dereferenceable(1) %2) #25
  %12 = trunc i64 %11 to i32
  br label %13

13:                                               ; preds = %10, %6
  %.0.i = phi i32 [ %12, %10 ], [ %3, %6 ]
  %14 = getelementptr inbounds i8, ptr %8, i64 144
  %15 = load ptr, ptr %14, align 8
  %16 = getelementptr inbounds i8, ptr %15, i64 160
  %17 = load ptr, ptr %16, align 8
  %18 = getelementptr inbounds i8, ptr %8, i64 152
  %19 = load ptr, ptr %18, align 8
  %20 = getelementptr inbounds i8, ptr %15, i64 16
  %21 = load ptr, ptr %20, align 8
  %.not.i = icmp eq ptr %21, null
  br i1 %.not.i, label %_ZN9hb_font_t19get_glyph_from_nameEPKciPj.exit, label %22

22:                                               ; preds = %13
  %23 = getelementptr inbounds i8, ptr %21, i64 128
  %24 = load ptr, ptr %23, align 8
  br label %_ZN9hb_font_t19get_glyph_from_nameEPKciPj.exit

_ZN9hb_font_t19get_glyph_from_nameEPKciPj.exit:   ; preds = %13, %22
  %25 = phi ptr [ %24, %22 ], [ null, %13 ]
  %26 = tail call noundef i32 %17(ptr noundef nonnull %8, ptr noundef %19, ptr noundef %2, i32 noundef %.0.i, ptr noundef nonnull %4, ptr noundef %25)
  ret i32 %26
}